; Function Attrs: mustprogress uwtable
define noundef ptr @_ZNK8tinyxml27XMLNode17FirstChildElementEPKc(ptr noundef nonnull readonly align 8 captures(none) dereferenceable(104) %0, ptr noundef readonly captures(address) %1) local_unnamed_addr #4 align 2 {
  %3 = getelementptr inbounds nuw i8, ptr %0, i64 56
  %.01118 = load ptr, ptr %3, align 8, !tbaa !69
  %.not19 = icmp eq ptr %.01118, null
  br i1 %.not19, label %_ZNK8tinyxml27XMLNode17ToElementWithNameEPKc.exit, label %.lr.ph

.lr.ph:                                           ; preds = %2
  %4 = icmp eq ptr %1, null
  br i1 %4, label %.lr.ph.split.us, label %.lr.ph.split

.lr.ph.split.us:                                  ; preds = %.lr.ph, %10
  %.01120.us = phi ptr [ %.011.us, %10 ], [ %.01118, %.lr.ph ]
  %5 = load ptr, ptr %.01120.us, align 8, !tbaa !63
  %6 = getelementptr inbounds nuw i8, ptr %5, i64 48
  %7 = load ptr, ptr %6, align 8
  %8 = tail call noundef ptr %7(ptr noundef nonnull align 8 dereferenceable(104) %.01120.us)
  %9 = icmp eq ptr %8, null
  br i1 %9, label %10, label %_ZNK8tinyxml27XMLNode17ToElementWithNameEPKc.exit

10:                                               ; preds = %.lr.ph.split.us
  %11 = getelementptr inbounds nuw i8, ptr %.01120.us, i64 80
  %.011.us = load ptr, ptr %11, align 8, !tbaa !69
  %.not.us = icmp eq ptr %.011.us, null
  br i1 %.not.us, label %_ZNK8tinyxml27XMLNode17ToElementWithNameEPKc.exit, label %.lr.ph.split.us, !llvm.loop !83

.lr.ph.split:                                     ; preds = %.lr.ph, %28
  %.01120 = phi ptr [ %.011, %28 ], [ %.01118, %.lr.ph ]
  %12 = load ptr, ptr %.01120, align 8, !tbaa !63
  %13 = getelementptr inbounds nuw i8, ptr %12, i64 48
  %14 = load ptr, ptr %13, align 8
  %15 = tail call noundef ptr %14(ptr noundef nonnull align 8 dereferenceable(104) %.01120)
  %16 = icmp eq ptr %15, null
  br i1 %16, label %28, label %17

17:                                               ; preds = %.lr.ph.split
  %18 = load ptr, ptr %15, align 8, !tbaa !63
  %19 = getelementptr inbounds nuw i8, ptr %18, i64 72
  %20 = load ptr, ptr %19, align 8
  %21 = tail call noundef ptr %20(ptr noundef nonnull align 8 dereferenceable(120) %15)
  %.not.i.i.i = icmp eq ptr %21, null
  br i1 %.not.i.i.i, label %22, label %_ZNK8tinyxml210XMLElement4NameEv.exit.i

22:                                               ; preds = %17
  %23 = getelementptr inbounds nuw i8, ptr %15, i64 24
  %24 = tail call noundef ptr @_ZN8tinyxml27StrPair6GetStrEv(ptr noundef nonnull align 8 dereferenceable(24) %23)
  br label %_ZNK8tinyxml210XMLElement4NameEv.exit.i

_ZNK8tinyxml210XMLElement4NameEv.exit.i:          ; preds = %22, %17
  %.0.i.i.i = phi ptr [ %24, %22 ], [ null, %17 ]
  %25 = icmp eq ptr %.0.i.i.i, %1
  br i1 %25, label %_ZNK8tinyxml27XMLNode17ToElementWithNameEPKc.exit, label %_ZN8tinyxml27XMLUtil11StringEqualEPKcS2_i.exit.i

_ZN8tinyxml27XMLUtil11StringEqualEPKcS2_i.exit.i: ; preds = %_ZNK8tinyxml210XMLElement4NameEv.exit.i
  %26 = tail call i32 @strncmp(ptr noundef nonnull dereferenceable(1) %.0.i.i.i, ptr noundef nonnull readonly dereferenceable(1) %1, i64 noundef 2147483647) #33
  %.fr.i = freeze i32 %26
  %27 = icmp eq i32 %.fr.i, 0
  br i1 %27, label %_ZNK8tinyxml27XMLNode17ToElementWithNameEPKc.exit, label %28

28:                                               ; preds = %.lr.ph.split, %_ZN8tinyxml27XMLUtil11StringEqualEPKcS2_i.exit.i
  %29 = getelementptr inbounds nuw i8, ptr %.01120, i64 80
  %.011 = load ptr, ptr %29, align 8, !tbaa !69
  %.not = icmp eq ptr %.011, null
  br i1 %.not, label %_ZNK8tinyxml27XMLNode17ToElementWithNameEPKc.exit, label %.lr.ph.split, !llvm.loop !83

_ZNK8tinyxml27XMLNode17ToElementWithNameEPKc.exit: ; preds = %28, %_ZNK8tinyxml210XMLElement4NameEv.exit.i, %_ZN8tinyxml27XMLUtil11StringEqualEPKcS2_i.exit.i, %10, %.lr.ph.split.us, %2
  %spec.select = phi ptr [ null, %2 ], [ %8, %.lr.ph.split.us ], [ null, %10 ], [ %15, %_ZN8tinyxml27XMLUtil11StringEqualEPKcS2_i.exit.i ], [ %15, %_ZNK8tinyxml210XMLElement4NameEv.exit.i ], [ null, %28 ]
  ret ptr %spec.select
}